; Function Attrs: mustprogress nofree norecurse nosync nounwind willreturn memory(argmem: write) uwtable
define void @_ZN8QuantLib29SobolBrownianGeneratorFactoryC2ENS_26SobolBrownianGeneratorBase8OrderingEmNS_8SobolRsg17DirectionIntegersE(ptr nocapture noundef nonnull writeonly align 8 dereferenceable(28) %this, i32 noundef %ordering, i64 noundef %seed, i32 noundef %integers) unnamed_addr #10 align 2 {
entry:
  store ptr getelementptr inbounds inrange(-16, 24) (i8, ptr @_ZTVN8QuantLib29SobolBrownianGeneratorFactoryE, i64 16), ptr %this, align 8, !tbaa !3
  %ordering_ = getelementptr inbounds nuw i8, ptr %this, i64 8
  store i32 %ordering, ptr %ordering_, align 8, !tbaa !109
  %seed_ = getelementptr inbounds nuw i8, ptr %this, i64 16
  store i64 %seed, ptr %seed_, align 8, !tbaa !113
  %integers_ = getelementptr inbounds nuw i8, ptr %this, i64 24
  store i32 %integers, ptr %integers_, align 8, !tbaa !114
  ret void
}